target datalayout = "e-m:e-p270:32:32-p271:32:32-p272:64:64-i64:64-i128:128-f80:128-n8:16:32:64-S128"
target triple = "x86_64-pc-linux-gnu"

@lut_nmsedec_sig = internal global [128 x i32] zeroinitializer, align 16
@lut_nmsedec_sig0 = internal global [128 x i32] zeroinitializer, align 16
@lut_nmsedec_ref = internal global [128 x i32] zeroinitializer, align 16
@lut_nmsedec_ref0 = internal global [128 x i32] zeroinitializer, align 16

; Function Attrs: nounwind uwtable
define internal void @init_luts() #1 {
  %1 = alloca i32, align 4
  %2 = alloca i32, align 4
  %3 = alloca i32, align 4
  call void @llvm.lifetime.start.p0(i64 4, ptr %1) #13
  call void @llvm.lifetime.start.p0(i64 4, ptr %2) #13
  call void @llvm.lifetime.start.p0(i64 4, ptr %3) #13
  store i32 -64, ptr %3, align 4, !tbaa !43
  store i32 0, ptr %1, align 4, !tbaa !43
  br label %4

4:                                                ; preds = %110, %0
  %5 = load i32, ptr %1, align 4, !tbaa !43
  %6 = icmp slt i32 %5, 128
  br i1 %6, label %7, label %113

7:                                                ; preds = %4
  %8 = load i32, ptr %1, align 4, !tbaa !43
  %9 = mul nsw i32 3, %8
  %10 = shl i32 %9, 7
  %11 = sub nsw i32 %10, 18432
  %12 = icmp sgt i32 %11, 0
  br i1 %12, label %13, label %18

13:                                               ; preds = %7
  %14 = load i32, ptr %1, align 4, !tbaa !43
  %15 = mul nsw i32 3, %14
  %16 = shl i32 %15, 7
  %17 = sub nsw i32 %16, 18432
  br label %19

18:                                               ; preds = %7
  br label %19

19:                                               ; preds = %18, %13
  %20 = phi i32 [ %17, %13 ], [ 0, %18 ]
  %21 = load i32, ptr %1, align 4, !tbaa !43
  %22 = sext i32 %21 to i64
  %23 = getelementptr inbounds [128 x i32], ptr @lut_nmsedec_sig, i64 0, i64 %22
  store i32 %20, ptr %23, align 4, !tbaa !43
  %24 = load i32, ptr %1, align 4, !tbaa !43
  %25 = load i32, ptr %1, align 4, !tbaa !43
  %26 = mul nsw i32 %24, %25
  %27 = add nsw i32 %26, 32
  %28 = load i32, ptr %3, align 4, !tbaa !43
  %29 = and i32 %27, %28
  %30 = shl i32 %29, 1
  %31 = icmp sgt i32 %30, 0
  br i1 %31, label %32, label %40

32:                                               ; preds = %19
  %33 = load i32, ptr %1, align 4, !tbaa !43
  %34 = load i32, ptr %1, align 4, !tbaa !43
  %35 = mul nsw i32 %33, %34
  %36 = add nsw i32 %35, 32
  %37 = load i32, ptr %3, align 4, !tbaa !43
  %38 = and i32 %36, %37
  %39 = shl i32 %38, 1
  br label %41

40:                                               ; preds = %19
  br label %41

41:                                               ; preds = %40, %32
  %42 = phi i32 [ %39, %32 ], [ 0, %40 ]
  %43 = load i32, ptr %1, align 4, !tbaa !43
  %44 = sext i32 %43 to i64
  %45 = getelementptr inbounds [128 x i32], ptr @lut_nmsedec_sig0, i64 0, i64 %44
  store i32 %42, ptr %45, align 4, !tbaa !43
  %46 = load i32, ptr %1, align 4, !tbaa !43
  %47 = ashr i32 %46, 5
  %48 = and i32 %47, 2
  %49 = add nsw i32 %48, 1
  store i32 %49, ptr %2, align 4, !tbaa !43
  %50 = load i32, ptr %2, align 4, !tbaa !43
  %51 = sub nsw i32 %50, 2
  %52 = load i32, ptr %1, align 4, !tbaa !43
  %53 = shl i32 %52, 7
  %54 = mul nsw i32 %51, %53
  %55 = add nsw i32 %54, 8192
  %56 = load i32, ptr %2, align 4, !tbaa !43
  %57 = load i32, ptr %2, align 4, !tbaa !43
  %58 = mul nsw i32 %56, %57
  %59 = shl i32 %58, 11
  %60 = sub nsw i32 %55, %59
  %61 = icmp sgt i32 %60, 0
  br i1 %61, label %62, label %74

62:                                               ; preds = %41
  %63 = load i32, ptr %2, align 4, !tbaa !43
  %64 = sub nsw i32 %63, 2
  %65 = load i32, ptr %1, align 4, !tbaa !43
  %66 = shl i32 %65, 7
  %67 = mul nsw i32 %64, %66
  %68 = add nsw i32 %67, 8192
  %69 = load i32, ptr %2, align 4, !tbaa !43
  %70 = load i32, ptr %2, align 4, !tbaa !43
  %71 = mul nsw i32 %69, %70
  %72 = shl i32 %71, 11
  %73 = sub nsw i32 %68, %72
  br label %75

74:                                               ; preds = %41
  br label %75

75:                                               ; preds = %74, %62
  %76 = phi i32 [ %73, %62 ], [ 0, %74 ]
  %77 = load i32, ptr %1, align 4, !tbaa !43
  %78 = sext i32 %77 to i64
  %79 = getelementptr inbounds [128 x i32], ptr @lut_nmsedec_ref, i64 0, i64 %78
  store i32 %76, ptr %79, align 4, !tbaa !43
  %80 = load i32, ptr %1, align 4, !tbaa !43
  %81 = load i32, ptr %1, align 4, !tbaa !43
  %82 = mul nsw i32 %80, %81
  %83 = load i32, ptr %1, align 4, !tbaa !43
  %84 = shl i32 %83, 7
  %85 = sub nsw i32 %82, %84
  %86 = add nsw i32 %85, 4096
  %87 = add nsw i32 %86, 32
  %88 = load i32, ptr %3, align 4, !tbaa !43
  %89 = and i32 %87, %88
  %90 = shl i32 %89, 1
  %91 = icmp sgt i32 %90, 0
  br i1 %91, label %92, label %104

92:                                               ; preds = %75
  %93 = load i32, ptr %1, align 4, !tbaa !43
  %94 = load i32, ptr %1, align 4, !tbaa !43
  %95 = mul nsw i32 %93, %94
  %96 = load i32, ptr %1, align 4, !tbaa !43
  %97 = shl i32 %96, 7
  %98 = sub nsw i32 %95, %97
  %99 = add nsw i32 %98, 4096
  %100 = add nsw i32 %99, 32
  %101 = load i32, ptr %3, align 4, !tbaa !43
  %102 = and i32 %100, %101
  %103 = shl i32 %102, 1
  br label %105

104:                                              ; preds = %75
  br label %105

105:                                              ; preds = %104, %92
  %106 = phi i32 [ %103, %92 ], [ 0, %104 ]
  %107 = load i32, ptr %1, align 4, !tbaa !43
  %108 = sext i32 %107 to i64
  %109 = getelementptr inbounds [128 x i32], ptr @lut_nmsedec_ref0, i64 0, i64 %108
  store i32 %106, ptr %109, align 4, !tbaa !43
  br label %110

110:                                              ; preds = %105
  %111 = load i32, ptr %1, align 4, !tbaa !43
  %112 = add nsw i32 %111, 1
  store i32 %112, ptr %1, align 4, !tbaa !43
  br label %4, !llvm.loop !97

113:                                              ; preds = %4
  call void @ff_jpeg2000_init_tier1_luts()
  call void @llvm.lifetime.end.p0(i64 4, ptr %3) #13
  call void @llvm.lifetime.end.p0(i64 4, ptr %2) #13
  call void @llvm.lifetime.end.p0(i64 4, ptr %1) #13
  ret void
}