; Function Attrs: nounwind uwtable
define internal void @init_luts() #1 {
  br label %1

1:                                                ; preds = %0, %1
  %indvars.iv = phi i64 [ 0, %0 ], [ %indvars.iv.next, %1 ]
  %indvars35 = trunc i64 %indvars.iv to i32
  %2 = trunc i64 %indvars.iv to i32
  %3 = mul i32 %2, 384
  %4 = tail call i32 @llvm.usub.sat.i32(i32 %3, i32 18432)
  %5 = getelementptr inbounds nuw [128 x i32], ptr @lut_nmsedec_sig, i64 0, i64 %indvars.iv
  store i32 %4, ptr %5, align 4, !tbaa !37
  %6 = mul nuw nsw i64 %indvars.iv, %indvars.iv
  %.tr = trunc i64 %6 to i32
  %7 = shl i32 %.tr, 1
  %8 = add i32 %7, 64
  %9 = and i32 %8, 65408
  %10 = getelementptr inbounds nuw [128 x i32], ptr @lut_nmsedec_sig0, i64 0, i64 %indvars.iv
  store i32 %9, ptr %10, align 4, !tbaa !37
  %11 = lshr i32 %indvars35, 5
  %12 = or i32 %11, 1
  %13 = add nsw i32 %12, -2
  %14 = shl nuw nsw i32 %indvars35, 7
  %indvars.iv.tr = trunc i64 %indvars.iv to i32
  %15 = shl i32 %indvars.iv.tr, 7
  %16 = mul nsw i32 %13, %15
  %17 = add nsw i32 %16, 8192
  %18 = mul i32 %12, -2048
  %.neg = mul i32 %18, %12
  %19 = add i32 %17, %.neg
  %20 = tail call i32 @llvm.smax.i32(i32 %19, i32 0)
  %21 = getelementptr inbounds nuw [128 x i32], ptr @lut_nmsedec_ref, i64 0, i64 %indvars.iv
  store i32 %20, ptr %21, align 4, !tbaa !37
  %22 = trunc nuw i64 %6 to i32
  %23 = sub nsw i32 %22, %14
  %24 = shl nsw i32 %23, 1
  %25 = icmp sgt i32 %23, -4065
  %26 = add nsw i32 %24, 8256
  %27 = and i32 %26, -128
  %28 = select i1 %25, i32 %27, i32 0
  %29 = getelementptr inbounds nuw [128 x i32], ptr @lut_nmsedec_ref0, i64 0, i64 %indvars.iv
  store i32 %28, ptr %29, align 4, !tbaa !37
  %indvars.iv.next = add nuw nsw i64 %indvars.iv, 1
  %exitcond.not = icmp eq i64 %indvars.iv.next, 128
  br i1 %exitcond.not, label %30, label %1, !llvm.loop !216

30:                                               ; preds = %1
  tail call void @ff_jpeg2000_init_tier1_luts() #12
  ret void
}